target datalayout = "e-m:e-p270:32:32-p271:32:32-p272:64:64-i64:64-i128:128-f80:128-n8:16:32:64-S128"
target triple = "x86_64-pc-linux-gnu"

%"class.cv::bioinspired::BasicRetinaFilter" = type { %"class.cv::bioinspired::TemplateBuffer", %"class.std::valarray", i32, i32, %"class.std::valarray", %"class.std::valarray", %"class.std::valarray", float, float, float, float, float, float, float, float }
%"class.cv::bioinspired::TemplateBuffer" = type { ptr, %"class.std::valarray", i64, i64, i64, i64, i64 }
%"class.std::valarray" = type { i64, ptr }

; Function Attrs: inlinehint mustprogress nounwind uwtable
define linkonce_odr hidden noundef i32 @_ZN2cv11bioinspired14TemplateBufferIfE12getNBcolumnsEv(ptr noundef nonnull align 8 dereferenceable(64) %0) #6 comdat align 2 {
  %2 = alloca ptr, align 8
  store ptr %0, ptr %2, align 8, !tbaa !23
  %3 = load ptr, ptr %2, align 8
  %4 = getelementptr inbounds nuw %"class.cv::bioinspired::TemplateBuffer", ptr %3, i32 0, i32 3
  %5 = load i64, ptr %4, align 8, !tbaa !30
  %6 = trunc i64 %5 to i32
  ret i32 %6
}

; Function Attrs: mustprogress uwtable
define hidden void @_ZN2cv11bioinspired17BasicRetinaFilter37_local_squaringHorizontalCausalFilterEPKfPfjjPKj(ptr noundef nonnull align 8 dereferenceable(168) %0, ptr noundef %1, ptr noundef %2, i32 noundef %3, i32 noundef %4, ptr noundef %5) #4 align 2 {
  %7 = alloca ptr, align 8
  %8 = alloca ptr, align 8
  %9 = alloca ptr, align 8
  %10 = alloca i32, align 4
  %11 = alloca i32, align 4
  %12 = alloca ptr, align 8
  %13 = alloca ptr, align 8
  %14 = alloca ptr, align 8
  %15 = alloca ptr, align 8
  %16 = alloca i32, align 4
  %17 = alloca i32, align 4
  %18 = alloca float, align 4
  %19 = alloca i32, align 4
  store ptr %0, ptr %7, align 8, !tbaa !3
  store ptr %1, ptr %8, align 8, !tbaa !49
  store ptr %2, ptr %9, align 8, !tbaa !49
  store i32 %3, ptr %10, align 4, !tbaa !8
  store i32 %4, ptr %11, align 4, !tbaa !8
  store ptr %5, ptr %12, align 8, !tbaa !113
  %20 = load ptr, ptr %7, align 8
  call void @llvm.lifetime.start.p0(i64 8, ptr %13) #3
  %21 = load ptr, ptr %9, align 8, !tbaa !49
  %22 = load i32, ptr %10, align 4, !tbaa !8
  %23 = getelementptr inbounds nuw %"class.cv::bioinspired::BasicRetinaFilter", ptr %20, i32 0, i32 0
  %24 = call noundef i32 @_ZN2cv11bioinspired14TemplateBufferIfE12getNBcolumnsEv(ptr noundef nonnull align 8 dereferenceable(64) %23)
  %25 = mul i32 %22, %24
  %26 = zext i32 %25 to i64
  %27 = getelementptr inbounds nuw float, ptr %21, i64 %26
  store ptr %27, ptr %13, align 8, !tbaa !49
  call void @llvm.lifetime.start.p0(i64 8, ptr %14) #3
  %28 = load ptr, ptr %8, align 8, !tbaa !49
  %29 = load i32, ptr %10, align 4, !tbaa !8
  %30 = getelementptr inbounds nuw %"class.cv::bioinspired::BasicRetinaFilter", ptr %20, i32 0, i32 0
  %31 = call noundef i32 @_ZN2cv11bioinspired14TemplateBufferIfE12getNBcolumnsEv(ptr noundef nonnull align 8 dereferenceable(64) %30)
  %32 = mul i32 %29, %31
  %33 = zext i32 %32 to i64
  %34 = getelementptr inbounds nuw float, ptr %28, i64 %33
  store ptr %34, ptr %14, align 8, !tbaa !49
  call void @llvm.lifetime.start.p0(i64 8, ptr %15) #3
  %35 = load ptr, ptr %12, align 8, !tbaa !113
  store ptr %35, ptr %15, align 8, !tbaa !113
  call void @llvm.lifetime.start.p0(i64 4, ptr %16) #3
  %36 = load i32, ptr %10, align 4, !tbaa !8
  store i32 %36, ptr %16, align 4, !tbaa !8
  br label %37

37:                                               ; preds = %80, %6
  %38 = load i32, ptr %16, align 4, !tbaa !8
  %39 = load i32, ptr %11, align 4, !tbaa !8
  %40 = icmp ult i32 %38, %39
  br i1 %40, label %42, label %41

41:                                               ; preds = %37
  store i32 2, ptr %17, align 4
  call void @llvm.lifetime.end.p0(i64 4, ptr %16) #3
  br label %83

42:                                               ; preds = %37
  call void @llvm.lifetime.start.p0(i64 4, ptr %18) #3
  store float 0.000000e+00, ptr %18, align 4, !tbaa !26
  call void @llvm.lifetime.start.p0(i64 4, ptr %19) #3
  store i32 0, ptr %19, align 4, !tbaa !8
  br label %43

43:                                               ; preds = %76, %42
  %44 = load i32, ptr %19, align 4, !tbaa !8
  %45 = getelementptr inbounds nuw %"class.cv::bioinspired::BasicRetinaFilter", ptr %20, i32 0, i32 0
  %46 = call noundef i32 @_ZN2cv11bioinspired14TemplateBufferIfE12getNBcolumnsEv(ptr noundef nonnull align 8 dereferenceable(64) %45)
  %47 = icmp ult i32 %44, %46
  br i1 %47, label %49, label %48

48:                                               ; preds = %43
  store i32 5, ptr %17, align 4
  call void @llvm.lifetime.end.p0(i64 4, ptr %19) #3
  br label %79

49:                                               ; preds = %43
  %50 = load ptr, ptr %15, align 8, !tbaa !113
  %51 = getelementptr inbounds nuw i32, ptr %50, i32 1
  store ptr %51, ptr %15, align 8, !tbaa !113
  %52 = load i32, ptr %50, align 4, !tbaa !8
  %53 = icmp ne i32 %52, 0
  br i1 %53, label %54, label %69

54:                                               ; preds = %49
  %55 = load ptr, ptr %14, align 8, !tbaa !49
  %56 = load float, ptr %55, align 4, !tbaa !26
  %57 = load ptr, ptr %14, align 8, !tbaa !49
  %58 = load float, ptr %57, align 4, !tbaa !26
  %59 = getelementptr inbounds nuw %"class.cv::bioinspired::BasicRetinaFilter", ptr %20, i32 0, i32 13
  %60 = load float, ptr %59, align 8, !tbaa !54
  %61 = load ptr, ptr %13, align 8, !tbaa !49
  %62 = load float, ptr %61, align 4, !tbaa !26
  %63 = fmul float %60, %62
  %64 = call float @llvm.fmuladd.f32(float %56, float %58, float %63)
  %65 = getelementptr inbounds nuw %"class.cv::bioinspired::BasicRetinaFilter", ptr %20, i32 0, i32 12
  %66 = load float, ptr %65, align 4, !tbaa !46
  %67 = load float, ptr %18, align 4, !tbaa !26
  %68 = call float @llvm.fmuladd.f32(float %66, float %67, float %64)
  store float %68, ptr %18, align 4, !tbaa !26
  br label %70

69:                                               ; preds = %49
  store float 0.000000e+00, ptr %18, align 4, !tbaa !26
  br label %70

70:                                               ; preds = %69, %54
  %71 = load float, ptr %18, align 4, !tbaa !26
  %72 = load ptr, ptr %13, align 8, !tbaa !49
  %73 = getelementptr inbounds nuw float, ptr %72, i32 1
  store ptr %73, ptr %13, align 8, !tbaa !49
  store float %71, ptr %72, align 4, !tbaa !26
  %74 = load ptr, ptr %14, align 8, !tbaa !49
  %75 = getelementptr inbounds nuw float, ptr %74, i32 1
  store ptr %75, ptr %14, align 8, !tbaa !49
  br label %76

76:                                               ; preds = %70
  %77 = load i32, ptr %19, align 4, !tbaa !8
  %78 = add i32 %77, 1
  store i32 %78, ptr %19, align 4, !tbaa !8
  br label %43, !llvm.loop !115

79:                                               ; preds = %48
  call void @llvm.lifetime.end.p0(i64 4, ptr %18) #3
  br label %80

80:                                               ; preds = %79
  %81 = load i32, ptr %16, align 4, !tbaa !8
  %82 = add i32 %81, 1
  store i32 %82, ptr %16, align 4, !tbaa !8
  br label %37, !llvm.loop !116

83:                                               ; preds = %41
  call void @llvm.lifetime.end.p0(i64 8, ptr %15) #3
  call void @llvm.lifetime.end.p0(i64 8, ptr %14) #3
  call void @llvm.lifetime.end.p0(i64 8, ptr %13) #3
  ret void
}