; Function Attrs: mustprogress nofree norecurse nosync nounwind memory(argmem: readwrite) uwtable
define hidden void @_ZN2cv11bioinspired17BasicRetinaFilter37_local_squaringHorizontalCausalFilterEPKfPfjjPKj(ptr noundef nonnull readonly align 8 captures(none) dereferenceable(168) %0, ptr noundef readonly captures(none) %1, ptr noundef captures(none) %2, i32 noundef %3, i32 noundef %4, ptr noundef readonly captures(none) %5) local_unnamed_addr #9 align 2 {
  %7 = getelementptr inbounds nuw i8, ptr %0, i64 32
  %8 = load i64, ptr %7, align 8, !tbaa !17
  %9 = trunc i64 %8 to i32
  %10 = icmp ult i32 %3, %4
  br i1 %10, label %.preheader.lr.ph, label %._crit_edge38

.preheader.lr.ph:                                 ; preds = %6
  %.not = icmp eq i32 %9, 0
  %11 = getelementptr inbounds nuw i8, ptr %0, i64 160
  %12 = getelementptr inbounds nuw i8, ptr %0, i64 156
  br i1 %.not, label %._crit_edge38, label %.preheader.us.preheader

.preheader.us.preheader:                          ; preds = %.preheader.lr.ph
  %13 = mul i32 %3, %9
  %14 = zext i32 %13 to i64
  %15 = getelementptr inbounds nuw float, ptr %2, i64 %14
  %16 = getelementptr inbounds nuw float, ptr %1, i64 %14
  br label %.preheader.us

.preheader.us:                                    ; preds = %.preheader.us.preheader, %._crit_edge.us
  %.02037.us = phi i32 [ %32, %._crit_edge.us ], [ %3, %.preheader.us.preheader ]
  %.02136.us = phi ptr [ %18, %._crit_edge.us ], [ %5, %.preheader.us.preheader ]
  %.02335.us = phi ptr [ %30, %._crit_edge.us ], [ %16, %.preheader.us.preheader ]
  %.02534.us = phi ptr [ %29, %._crit_edge.us ], [ %15, %.preheader.us.preheader ]
  br label %17

17:                                               ; preds = %.preheader.us, %28
  %.031.us = phi i32 [ 0, %.preheader.us ], [ %31, %28 ]
  %.01930.us = phi float [ 0.000000e+00, %.preheader.us ], [ %.1.us, %28 ]
  %.12229.us = phi ptr [ %.02136.us, %.preheader.us ], [ %18, %28 ]
  %.12428.us = phi ptr [ %.02335.us, %.preheader.us ], [ %30, %28 ]
  %.12627.us = phi ptr [ %.02534.us, %.preheader.us ], [ %29, %28 ]
  %18 = getelementptr inbounds nuw i8, ptr %.12229.us, i64 4
  %19 = load i32, ptr %.12229.us, align 4, !tbaa !61
  %.not.us = icmp eq i32 %19, 0
  br i1 %.not.us, label %28, label %20

20:                                               ; preds = %17
  %21 = load float, ptr %.12428.us, align 4, !tbaa !11
  %22 = load float, ptr %11, align 8, !tbaa !84
  %23 = load float, ptr %.12627.us, align 4, !tbaa !11
  %24 = fmul float %22, %23
  %25 = tail call float @llvm.fmuladd.f32(float %21, float %21, float %24)
  %26 = load float, ptr %12, align 4, !tbaa !65
  %27 = tail call float @llvm.fmuladd.f32(float %26, float %.01930.us, float %25)
  br label %28

28:                                               ; preds = %20, %17
  %.1.us = phi float [ %27, %20 ], [ 0.000000e+00, %17 ]
  %29 = getelementptr inbounds nuw i8, ptr %.12627.us, i64 4
  store float %.1.us, ptr %.12627.us, align 4, !tbaa !11
  %30 = getelementptr inbounds nuw i8, ptr %.12428.us, i64 4
  %31 = add nuw i32 %.031.us, 1
  %exitcond.not = icmp eq i32 %31, %9
  br i1 %exitcond.not, label %._crit_edge.us, label %17, !llvm.loop !119

._crit_edge.us:                                   ; preds = %28
  %32 = add nuw i32 %.02037.us, 1
  %exitcond42.not = icmp eq i32 %32, %4
  br i1 %exitcond42.not, label %._crit_edge38, label %.preheader.us, !llvm.loop !120

._crit_edge38:                                    ; preds = %._crit_edge.us, %.preheader.lr.ph, %6
  ret void
}